; Function Attrs: mustprogress uwtable
define void @_ZN15MainApplication15helpTopicActionE14topic_action_e(ptr nocapture nonnull readnone align 8 %0, i32 noundef %1) local_unnamed_addr #3 align 2 personality ptr @__gxx_personality_v0 {
  %3 = alloca %class.QString, align 8
  %4 = alloca %class.QUrl, align 8
  %5 = tail call ptr @topic_action_url(i32 noundef %1)
  call void @_Z21gchar_free_to_qstringPc(ptr dead_on_unwind nonnull writable sret(%class.QString) align 8 %3, ptr noundef %5)
  %6 = getelementptr inbounds i8, ptr %3, i64 16
  %7 = load i64, ptr %6, align 8
  %8 = icmp eq i64 %7, 0
  br i1 %8, label %17, label %9

9:                                                ; preds = %2
  invoke void @_ZN4QUrlC1ERK7QStringNS_11ParsingModeE(ptr noundef nonnull align 8 dereferenceable(8) %4, ptr noundef nonnull align 8 dereferenceable(24) %3, i32 noundef 0)
          to label %10 unwind label %13

10:                                               ; preds = %9
  %11 = invoke noundef zeroext i1 @_ZN16QDesktopServices7openUrlERK4QUrl(ptr noundef nonnull align 8 dereferenceable(8) %4)
          to label %12 unwind label %15

12:                                               ; preds = %10
  call void @_ZN4QUrlD1Ev(ptr noundef nonnull align 8 dereferenceable(8) %4) #26
  br label %17

13:                                               ; preds = %9
  %14 = landingpad { ptr, i32 }
          cleanup
  br label %22

15:                                               ; preds = %10
  %16 = landingpad { ptr, i32 }
          cleanup
  call void @_ZN4QUrlD1Ev(ptr noundef nonnull align 8 dereferenceable(8) %4) #26
  br label %22

17:                                               ; preds = %12, %2
  %18 = load ptr, ptr %3, align 8
  %.not.i.i.i = icmp eq ptr %18, null
  br i1 %.not.i.i.i, label %_ZN7QStringD2Ev.exit, label %_ZN17QArrayDataPointerIDsE5derefEv.exit.i.i

_ZN17QArrayDataPointerIDsE5derefEv.exit.i.i:      ; preds = %17
  %19 = atomicrmw sub ptr %18, i32 1 seq_cst, align 4
  %.not.i.i = icmp eq i32 %19, 1
  br i1 %.not.i.i, label %20, label %_ZN7QStringD2Ev.exit

20:                                               ; preds = %_ZN17QArrayDataPointerIDsE5derefEv.exit.i.i
  %21 = load ptr, ptr %3, align 8
  call void @_ZN10QArrayData10deallocateEPS_xx(ptr noundef %21, i64 noundef 2, i64 noundef 8) #26
  br label %_ZN7QStringD2Ev.exit

_ZN7QStringD2Ev.exit:                             ; preds = %17, %_ZN17QArrayDataPointerIDsE5derefEv.exit.i.i, %20
  ret void

22:                                               ; preds = %15, %13
  %.pn = phi { ptr, i32 } [ %16, %15 ], [ %14, %13 ]
  %23 = load ptr, ptr %3, align 8
  %.not.i.i.i4 = icmp eq ptr %23, null
  br i1 %.not.i.i.i4, label %_ZN7QStringD2Ev.exit7, label %_ZN17QArrayDataPointerIDsE5derefEv.exit.i.i5

_ZN17QArrayDataPointerIDsE5derefEv.exit.i.i5:     ; preds = %22
  %24 = atomicrmw sub ptr %23, i32 1 seq_cst, align 4
  %.not.i.i6 = icmp eq i32 %24, 1
  br i1 %.not.i.i6, label %25, label %_ZN7QStringD2Ev.exit7

25:                                               ; preds = %_ZN17QArrayDataPointerIDsE5derefEv.exit.i.i5
  %26 = load ptr, ptr %3, align 8
  call void @_ZN10QArrayData10deallocateEPS_xx(ptr noundef %26, i64 noundef 2, i64 noundef 8) #26
  br label %_ZN7QStringD2Ev.exit7

_ZN7QStringD2Ev.exit7:                            ; preds = %22, %_ZN17QArrayDataPointerIDsE5derefEv.exit.i.i5, %25
  resume { ptr, i32 } %.pn
}